; Function Attrs: mustprogress uwtable
define noalias ptr @lean_io_basesharedmutex_write(ptr noundef readonly captures(none) %0, ptr noundef readnone captures(none) %1) local_unnamed_addr #0 {
  %3 = getelementptr i8, ptr %0, i64 16
  %.val = load ptr, ptr %3, align 8, !tbaa !12
  %4 = tail call noundef i32 @pthread_rwlock_wrlock(ptr noundef nonnull align 8 dereferenceable(56) %.val) #11
  %5 = icmp eq i32 %4, 35
  br i1 %5, label %6, label %_ZNSt18shared_timed_mutex4lockEv.exit

6:                                                ; preds = %2
  tail call void @_ZSt20__throw_system_errori(i32 noundef 35) #12
  unreachable

_ZNSt18shared_timed_mutex4lockEv.exit:            ; preds = %2
  tail call void @lean_inc_heartbeat()
  %7 = tail call noalias ptr @mi_malloc_small(i64 noundef 24) #11
  %8 = icmp eq ptr %7, null
  br i1 %8, label %9, label %_ZN4lean15io_result_mk_okEP11lean_object.exit

9:                                                ; preds = %_ZNSt18shared_timed_mutex4lockEv.exit
  tail call void @lean_internal_panic_out_of_memory() #12
  unreachable

_ZN4lean15io_result_mk_okEP11lean_object.exit:    ; preds = %_ZNSt18shared_timed_mutex4lockEv.exit
  %10 = getelementptr inbounds nuw i8, ptr %7, i64 4
  store i32 1, ptr %7, align 4, !tbaa !7
  store i32 131096, ptr %10, align 4
  %11 = getelementptr inbounds nuw i8, ptr %7, i64 8
  store ptr inttoptr (i64 1 to ptr), ptr %11, align 8, !tbaa !3
  %12 = getelementptr inbounds nuw i8, ptr %7, i64 16
  store ptr inttoptr (i64 1 to ptr), ptr %12, align 8, !tbaa !3
  ret ptr %7
}